target datalayout = "e-m:e-p270:32:32-p271:32:32-p272:64:64-i64:64-i128:128-f80:128-n8:16:32:64-S128"
target triple = "x86_64-pc-linux-gnu"

@Ndr_ObjWriteConstant.Buffer = internal global [10000 x i8] zeroinitializer, align 16
@.str = private unnamed_addr constant [5 x i8] c"%d'b\00", align 1

; Function Attrs: inlinehint nounwind uwtable
define internal i32 @Abc_InfoHasBit(ptr noundef %0, i32 noundef %1) #4 {
  %3 = alloca ptr, align 8
  %4 = alloca i32, align 4
  store ptr %0, ptr %3, align 8, !tbaa !7
  store i32 %1, ptr %4, align 4, !tbaa !3
  %5 = load ptr, ptr %3, align 8, !tbaa !7
  %6 = load i32, ptr %4, align 4, !tbaa !3
  %7 = ashr i32 %6, 5
  %8 = sext i32 %7 to i64
  %9 = getelementptr inbounds i32, ptr %5, i64 %8
  %10 = load i32, ptr %9, align 4, !tbaa !3
  %11 = load i32, ptr %4, align 4, !tbaa !3
  %12 = and i32 %11, 31
  %13 = shl i32 1, %12
  %14 = and i32 %10, %13
  %15 = icmp ugt i32 %14, 0
  %16 = zext i1 %15 to i32
  ret i32 %16
}

; Function Attrs: nounwind uwtable
define ptr @Ndr_ObjWriteConstant(ptr noundef %0, i32 noundef %1) #0 {
  %3 = alloca ptr, align 8
  %4 = alloca i32, align 4
  %5 = alloca i32, align 4
  %6 = alloca i32, align 4
  store ptr %0, ptr %3, align 8, !tbaa !7
  store i32 %1, ptr %4, align 4, !tbaa !3
  call void @llvm.lifetime.start.p0(i64 4, ptr %5) #11
  call void @llvm.lifetime.start.p0(i64 4, ptr %6) #11
  %7 = load i32, ptr %4, align 4, !tbaa !3
  %8 = call i32 (ptr, ptr, ...) @sprintf(ptr noundef @Ndr_ObjWriteConstant.Buffer, ptr noundef @.str, i32 noundef %7) #11
  %9 = call i64 @strlen(ptr noundef @Ndr_ObjWriteConstant.Buffer) #12
  %10 = trunc i64 %9 to i32
  store i32 %10, ptr %6, align 4, !tbaa !3
  %11 = load i32, ptr %4, align 4, !tbaa !3
  %12 = sub nsw i32 %11, 1
  store i32 %12, ptr %5, align 4, !tbaa !3
  br label %13

13:                                               ; preds = %26, %2
  %14 = load i32, ptr %5, align 4, !tbaa !3
  %15 = icmp sge i32 %14, 0
  br i1 %15, label %16, label %29

16:                                               ; preds = %13
  %17 = load ptr, ptr %3, align 8, !tbaa !7
  %18 = load i32, ptr %5, align 4, !tbaa !3
  %19 = call i32 @Abc_InfoHasBit(ptr noundef %17, i32 noundef %18)
  %20 = add nsw i32 48, %19
  %21 = trunc i32 %20 to i8
  %22 = load i32, ptr %6, align 4, !tbaa !3
  %23 = add nsw i32 %22, 1
  store i32 %23, ptr %6, align 4, !tbaa !3
  %24 = sext i32 %22 to i64
  %25 = getelementptr inbounds [10000 x i8], ptr @Ndr_ObjWriteConstant.Buffer, i64 0, i64 %24
  store i8 %21, ptr %25, align 1, !tbaa !10
  br label %26

26:                                               ; preds = %16
  %27 = load i32, ptr %5, align 4, !tbaa !3
  %28 = add nsw i32 %27, -1
  store i32 %28, ptr %5, align 4, !tbaa !3
  br label %13, !llvm.loop !11

29:                                               ; preds = %13
  %30 = load i32, ptr %6, align 4, !tbaa !3
  %31 = sext i32 %30 to i64
  %32 = getelementptr inbounds [10000 x i8], ptr @Ndr_ObjWriteConstant.Buffer, i64 0, i64 %31
  store i8 0, ptr %32, align 1, !tbaa !10
  call void @llvm.lifetime.end.p0(i64 4, ptr %6) #11
  call void @llvm.lifetime.end.p0(i64 4, ptr %5) #11
  ret ptr @Ndr_ObjWriteConstant.Buffer
}