; Function Attrs: nofree nounwind uwtable
define noundef nonnull ptr @Ndr_ObjWriteConstant(ptr noundef readonly captures(none) %0, i32 noundef %1) local_unnamed_addr #1 {
  %3 = tail call i32 (ptr, ptr, ...) @sprintf(ptr noundef nonnull dereferenceable(1) @Ndr_ObjWriteConstant.Buffer, ptr noundef nonnull dereferenceable(1) @.str, i32 noundef %1) #22
  %4 = tail call i64 @strlen(ptr noundef nonnull dereferenceable(1) @Ndr_ObjWriteConstant.Buffer) #23
  %5 = icmp sgt i32 %1, 0
  br i1 %5, label %.lr.ph.preheader, label %._crit_edge

.lr.ph.preheader:                                 ; preds = %2
  %sext = shl i64 %4, 32
  %6 = ashr exact i64 %sext, 32
  br label %.lr.ph

.lr.ph:                                           ; preds = %.lr.ph.preheader, %.lr.ph
  %indvars.iv = phi i64 [ %6, %.lr.ph.preheader ], [ %indvars.iv.next, %.lr.ph ]
  %.07.in8 = phi i32 [ %1, %.lr.ph.preheader ], [ %.07, %.lr.ph ]
  %.07 = add nsw i32 %.07.in8, -1
  %7 = lshr i32 %.07, 5
  %8 = zext nneg i32 %7 to i64
  %9 = getelementptr inbounds nuw i32, ptr %0, i64 %8
  %10 = load i32, ptr %9, align 4, !tbaa !3
  %11 = and i32 %.07, 31
  %12 = lshr i32 %10, %11
  %13 = trunc i32 %12 to i8
  %14 = and i8 %13, 1
  %15 = or disjoint i8 %14, 48
  %indvars.iv.next = add nsw i64 %indvars.iv, 1
  %16 = getelementptr inbounds [10000 x i8], ptr @Ndr_ObjWriteConstant.Buffer, i64 0, i64 %indvars.iv
  store i8 %15, ptr %16, align 1, !tbaa !7
  %17 = icmp samesign ugt i32 %.07.in8, 1
  br i1 %17, label %.lr.ph, label %._crit_edge, !llvm.loop !8

._crit_edge:                                      ; preds = %.lr.ph, %2
  %.0.lcssa.in = phi i64 [ %4, %2 ], [ %indvars.iv.next, %.lr.ph ]
  %sext11 = shl i64 %.0.lcssa.in, 32
  %18 = ashr exact i64 %sext11, 32
  %19 = getelementptr inbounds [10000 x i8], ptr @Ndr_ObjWriteConstant.Buffer, i64 0, i64 %18
  store i8 0, ptr %19, align 1, !tbaa !7
  ret ptr @Ndr_ObjWriteConstant.Buffer
}